; Function Attrs: mustprogress nofree norecurse nosync nounwind willreturn memory(read, inaccessiblemem: none) uwtable
define hidden noundef zeroext i1 @_Z15is_numeral_sortP11_Z3_contextP8_Z3_sort(ptr noundef readonly captures(none) %0, ptr noundef readonly captures(address_is_null) %1) local_unnamed_addr #3 {
  %.not = icmp eq ptr %1, null
  br i1 %.not, label %21, label %3

3:                                                ; preds = %2
  %4 = getelementptr inbounds nuw i8, ptr %1, i64 24
  %5 = load ptr, ptr %4, align 8, !tbaa !3
  %6 = icmp eq ptr %5, null
  br i1 %6, label %_ZNK4decl13get_family_idEv.exit.thread, label %_ZNK4decl13get_family_idEv.exit

_ZNK4decl13get_family_idEv.exit:                  ; preds = %3
  %7 = load i32, ptr %5, align 8, !tbaa !13
  %8 = icmp eq i32 %7, 5
  br i1 %8, label %21, label %_ZNK4decl13get_family_idEv.exit.thread

_ZNK4decl13get_family_idEv.exit.thread:           ; preds = %3, %_ZNK4decl13get_family_idEv.exit
  %9 = phi i32 [ %7, %_ZNK4decl13get_family_idEv.exit ], [ -1, %3 ]
  %10 = getelementptr inbounds nuw i8, ptr %0, i64 1492
  %11 = load i32, ptr %10, align 4, !tbaa !18
  %12 = icmp eq i32 %9, %11
  br i1 %12, label %21, label %13

13:                                               ; preds = %_ZNK4decl13get_family_idEv.exit.thread
  %14 = getelementptr inbounds nuw i8, ptr %0, i64 1500
  %15 = load i32, ptr %14, align 4, !tbaa !165
  %16 = icmp eq i32 %9, %15
  br i1 %16, label %21, label %17

17:                                               ; preds = %13
  %18 = getelementptr inbounds nuw i8, ptr %0, i64 1508
  %19 = load i32, ptr %18, align 4, !tbaa !166
  %20 = icmp eq i32 %9, %19
  br label %21

21:                                               ; preds = %_ZNK4decl13get_family_idEv.exit, %_ZNK4decl13get_family_idEv.exit.thread, %13, %17, %2
  %.0 = phi i1 [ false, %2 ], [ true, %13 ], [ true, %_ZNK4decl13get_family_idEv.exit.thread ], [ true, %_ZNK4decl13get_family_idEv.exit ], [ %20, %17 ]
  ret i1 %.0
}